(dp1
S'uptime'
p2
I308530934
sS'last_changed'
p3
I308480120
sS'device_name'
p4
Vpynet-rtr2.twb-tech.com
p5
s.(dp1
S'uptime'
p2
I438094128
sS'last_changed'
p3
I434791066
sS'device_name'
p4
Vpynet-rtr1.twb-tech.com
p5
s.