(dp1
S'uptime'
p2
I224552391
sS'last_changed'
p3
I224513076
sS'device_name'
p4
Vpynet-rtr2.twb-tech.com
p5
s.(dp1
S'uptime'
p2
I354115570
sS'last_changed'
p3
I330885830
sS'device_name'
p4
Vpynet-rtr1.twb-tech.com
p5
s.